target datalayout = "e-m:e-p270:32:32-p271:32:32-p272:64:64-i64:64-i128:128-f80:128-n8:16:32:64-S128"
target triple = "x86_64-pc-linux-gnu"

%struct.Type_ = type { i32, ptr, ptr, ptr, %union.anon.85, ptr, ptr, %union.anon.87 }
%union.anon.85 = type { ptr }
%union.anon.87 = type { %struct.TypeFunction }
%struct.TypeFunction = type { ptr, ptr, ptr }
%struct.Decl_ = type { ptr, ptr, %union.SourceSpan, i64, %union.anon, i32, %union.anon.0, i64, ptr, ptr, ptr, %union.anon.1 }
%union.SourceSpan = type { i64 }
%union.anon = type { ptr }
%union.anon.0 = type { i16 }
%union.anon.1 = type { %struct.FuncDecl }
%struct.FuncDecl = type { i32, [4 x i8], %struct.Signature_, i32, i32, %union.anon.8 }
%struct.Signature_ = type <{ %struct.CalleeAttributes, i16, i8, i32, i32, [4 x i8], ptr }>
%struct.CalleeAttributes = type { i8 }
%union.anon.8 = type { %struct.anon.9 }
%struct.anon.9 = type { i16, %union.anon.10 }
%union.anon.10 = type { ptr }
%struct.anon.2 = type { ptr, ptr, %union.anon.3 }
%union.anon.3 = type { %struct.BitStructDecl }
%struct.BitStructDecl = type { ptr, ptr, i8 }
%struct.StructDecl = type { i32, ptr, i32, i16 }
%struct.VHeader_ = type { i32, i32, [0 x i8] }
%struct.TypeArray = type { ptr, i32 }

; Function Attrs: nounwind uwtable
define dso_local ptr @type_abi_find_single_struct_element(ptr noundef %0) #0 {
  %2 = alloca i32, align 4
  %3 = alloca ptr, align 8
  %4 = alloca ptr, align 8
  %5 = alloca ptr, align 8
  %6 = alloca i32, align 4
  %7 = alloca ptr, align 8
  %8 = alloca i32, align 4
  %9 = alloca ptr, align 8
  %10 = alloca ptr, align 8
  %11 = alloca ptr, align 8
  %12 = alloca ptr, align 8
  %13 = alloca i32, align 4
  %14 = alloca i32, align 4
  %15 = alloca ptr, align 8
  store ptr %0, ptr %10, align 8
  %16 = load ptr, ptr %10, align 8
  store ptr %16, ptr %5, align 8
  %17 = load ptr, ptr %5, align 8
  %18 = load i32, ptr %17, align 8
  store i32 %18, ptr %6, align 4
  %19 = load i32, ptr %6, align 4
  %20 = icmp eq i32 %19, 31
  br i1 %20, label %21, label %26

21:                                               ; preds = %1
  %22 = load ptr, ptr %5, align 8
  %23 = getelementptr inbounds %struct.Type_, ptr %22, i32 0, i32 1
  %24 = load ptr, ptr %23, align 8
  %25 = load i32, ptr %24, align 8
  store i32 %25, ptr %6, align 4
  br label %26

26:                                               ; preds = %21, %1
  %27 = load i32, ptr %6, align 4
  %28 = icmp eq i32 %27, 27
  br i1 %28, label %32, label %29

29:                                               ; preds = %26
  %30 = load i32, ptr %6, align 4
  %31 = icmp eq i32 %30, 26
  br label %32

32:                                               ; preds = %29, %26
  %33 = phi i1 [ true, %26 ], [ %31, %29 ]
  br i1 %33, label %35, label %34

34:                                               ; preds = %32
  store ptr null, ptr %9, align 8
  br label %141

35:                                               ; preds = %32
  %36 = load ptr, ptr %10, align 8
  %37 = getelementptr inbounds %struct.Type_, ptr %36, i32 0, i32 7
  %38 = load ptr, ptr %37, align 8
  %39 = getelementptr inbounds %struct.Decl_, ptr %38, i32 0, i32 3
  %40 = load i64, ptr %39, align 8
  %41 = lshr i64 %40, 16
  %42 = and i64 %41, 1
  %43 = trunc i64 %42 to i1
  br i1 %43, label %44, label %45

44:                                               ; preds = %35
  store ptr null, ptr %9, align 8
  br label %141

45:                                               ; preds = %35
  store ptr null, ptr %11, align 8
  %46 = load ptr, ptr %10, align 8
  %47 = getelementptr inbounds %struct.Type_, ptr %46, i32 0, i32 7
  %48 = load ptr, ptr %47, align 8
  %49 = getelementptr inbounds %struct.Decl_, ptr %48, i32 0, i32 11
  %50 = getelementptr inbounds %struct.anon.2, ptr %49, i32 0, i32 2
  %51 = getelementptr inbounds %struct.StructDecl, ptr %50, i32 0, i32 1
  %52 = load ptr, ptr %51, align 8
  store ptr %52, ptr %12, align 8
  store i32 0, ptr %13, align 4
  %53 = load ptr, ptr %12, align 8
  store ptr %53, ptr %3, align 8
  %54 = load ptr, ptr %3, align 8
  %55 = icmp ne ptr %54, null
  br i1 %55, label %57, label %56

56:                                               ; preds = %45
  store i32 0, ptr %2, align 4
  br label %62

57:                                               ; preds = %45
  %58 = load ptr, ptr %3, align 8
  store ptr %58, ptr %4, align 8
  %59 = load ptr, ptr %4, align 8
  %60 = getelementptr inbounds %struct.VHeader_, ptr %59, i64 -1
  %61 = load i32, ptr %60, align 4
  store i32 %61, ptr %2, align 4
  br label %62

62:                                               ; preds = %57, %56
  %63 = load i32, ptr %2, align 4
  store i32 %63, ptr %14, align 4
  br label %64

64:                                               ; preds = %126, %62
  %65 = load i32, ptr %13, align 4
  %66 = load i32, ptr %14, align 4
  %67 = icmp ult i32 %65, %66
  br i1 %67, label %68, label %129

68:                                               ; preds = %64
  %69 = load ptr, ptr %12, align 8
  %70 = load i32, ptr %13, align 4
  %71 = zext i32 %70 to i64
  %72 = getelementptr inbounds ptr, ptr %69, i64 %71
  %73 = load ptr, ptr %72, align 8
  %74 = getelementptr inbounds %struct.Decl_, ptr %73, i32 0, i32 10
  %75 = load ptr, ptr %74, align 8
  %76 = call ptr @type_lowering(ptr noundef %75)
  store ptr %76, ptr %15, align 8
  %77 = load ptr, ptr %11, align 8
  %78 = icmp ne ptr %77, null
  br i1 %78, label %79, label %80

79:                                               ; preds = %68
  store ptr null, ptr %9, align 8
  br label %141

80:                                               ; preds = %68
  br label %81

81:                                               ; preds = %93, %80
  %82 = load ptr, ptr %15, align 8
  %83 = getelementptr inbounds %struct.Type_, ptr %82, i32 0, i32 0
  %84 = load i32, ptr %83, align 8
  %85 = icmp eq i32 %84, 33
  br i1 %85, label %86, label %98

86:                                               ; preds = %81
  %87 = load ptr, ptr %15, align 8
  %88 = getelementptr inbounds %struct.Type_, ptr %87, i32 0, i32 7
  %89 = getelementptr inbounds %struct.TypeArray, ptr %88, i32 0, i32 1
  %90 = load i32, ptr %89, align 8
  %91 = icmp ne i32 %90, 1
  br i1 %91, label %92, label %93

92:                                               ; preds = %86
  br label %98

93:                                               ; preds = %86
  %94 = load ptr, ptr %15, align 8
  %95 = getelementptr inbounds %struct.Type_, ptr %94, i32 0, i32 7
  %96 = getelementptr inbounds %struct.TypeArray, ptr %95, i32 0, i32 0
  %97 = load ptr, ptr %96, align 8
  store ptr %97, ptr %15, align 8
  br label %81, !llvm.loop !7

98:                                               ; preds = %92, %81
  %99 = load ptr, ptr %15, align 8
  store ptr %99, ptr %7, align 8
  %100 = load ptr, ptr %7, align 8
  %101 = load i32, ptr %100, align 8
  store i32 %101, ptr %8, align 4
  %102 = load i32, ptr %8, align 4
  %103 = icmp eq i32 %102, 31
  br i1 %103, label %104, label %109

104:                                              ; preds = %98
  %105 = load ptr, ptr %7, align 8
  %106 = getelementptr inbounds %struct.Type_, ptr %105, i32 0, i32 1
  %107 = load ptr, ptr %106, align 8
  %108 = load i32, ptr %107, align 8
  store i32 %108, ptr %8, align 4
  br label %109

109:                                              ; preds = %104, %98
  %110 = load i32, ptr %8, align 4
  %111 = icmp eq i32 %110, 27
  br i1 %111, label %115, label %112

112:                                              ; preds = %109
  %113 = load i32, ptr %8, align 4
  %114 = icmp eq i32 %113, 26
  br label %115

115:                                              ; preds = %112, %109
  %116 = phi i1 [ true, %109 ], [ %114, %112 ]
  br i1 %116, label %117, label %124

117:                                              ; preds = %115
  %118 = load ptr, ptr %15, align 8
  %119 = call ptr @type_abi_find_single_struct_element(ptr noundef %118)
  store ptr %119, ptr %15, align 8
  %120 = load ptr, ptr %15, align 8
  %121 = icmp ne ptr %120, null
  br i1 %121, label %123, label %122

122:                                              ; preds = %117
  store ptr null, ptr %9, align 8
  br label %141

123:                                              ; preds = %117
  br label %124

124:                                              ; preds = %123, %115
  %125 = load ptr, ptr %15, align 8
  store ptr %125, ptr %11, align 8
  br label %126

126:                                              ; preds = %124
  %127 = load i32, ptr %13, align 4
  %128 = add i32 %127, 1
  store i32 %128, ptr %13, align 4
  br label %64, !llvm.loop !9

129:                                              ; preds = %64
  %130 = load ptr, ptr %11, align 8
  %131 = icmp ne ptr %130, null
  br i1 %131, label %132, label %139

132:                                              ; preds = %129
  %133 = load ptr, ptr %10, align 8
  %134 = call i32 @type_size(ptr noundef %133)
  %135 = load ptr, ptr %11, align 8
  %136 = call i32 @type_size(ptr noundef %135)
  %137 = icmp ne i32 %134, %136
  br i1 %137, label %138, label %139

138:                                              ; preds = %132
  store ptr null, ptr %11, align 8
  br label %139

139:                                              ; preds = %138, %132, %129
  %140 = load ptr, ptr %11, align 8
  store ptr %140, ptr %9, align 8
  br label %141

141:                                              ; preds = %139, %122, %79, %44, %34
  %142 = load ptr, ptr %9, align 8
  ret ptr %142
}