; Function Attrs: nounwind uwtable
define dso_local ptr @type_abi_find_single_struct_element(ptr noundef %0) local_unnamed_addr #0 {
  %2 = load i32, ptr %0, align 8
  %3 = icmp eq i32 %2, 31
  br i1 %3, label %4, label %8

4:                                                ; preds = %1
  %5 = getelementptr inbounds i8, ptr %0, i64 8
  %6 = load ptr, ptr %5, align 8
  %7 = load i32, ptr %6, align 8
  br label %8

8:                                                ; preds = %4, %1
  %.037 = phi i32 [ %7, %4 ], [ %2, %1 ]
  %9 = and i32 %.037, -2
  %10 = icmp eq i32 %9, 26
  br i1 %10, label %11, label %.loopexit54

11:                                               ; preds = %8
  %12 = getelementptr inbounds i8, ptr %0, i64 56
  %13 = load ptr, ptr %12, align 8
  %14 = getelementptr inbounds i8, ptr %13, i64 24
  %15 = load i64, ptr %14, align 8
  %16 = and i64 %15, 65536
  %.not = icmp eq i64 %16, 0
  br i1 %.not, label %17, label %.loopexit54

17:                                               ; preds = %11
  %18 = getelementptr inbounds i8, ptr %13, i64 104
  %19 = load ptr, ptr %18, align 8
  %.not46 = icmp eq ptr %19, null
  br i1 %.not46, label %.loopexit54, label %20

20:                                               ; preds = %17
  %21 = getelementptr inbounds i8, ptr %19, i64 -8
  %22 = load i32, ptr %21, align 4
  %.not63 = icmp eq i32 %22, 0
  br i1 %.not63, label %.loopexit54, label %.lr.ph.preheader

.lr.ph.preheader:                                 ; preds = %20
  %wide.trip.count = zext i32 %22 to i64
  br label %.lr.ph

.lr.ph:                                           ; preds = %.lr.ph.preheader, %.thread52
  %indvars.iv = phi i64 [ 0, %.lr.ph.preheader ], [ %indvars.iv.next, %.thread52 ]
  %.03861 = phi i1 [ true, %.lr.ph.preheader ], [ false, %.thread52 ]
  %23 = getelementptr inbounds ptr, ptr %19, i64 %indvars.iv
  %24 = load ptr, ptr %23, align 8
  %25 = getelementptr inbounds i8, ptr %24, i64 72
  %26 = load ptr, ptr %25, align 8
  %27 = tail call fastcc ptr @type_lowering(ptr noundef %26)
  br i1 %.03861, label %.preheader, label %.loopexit54

.preheader:                                       ; preds = %.lr.ph, %32
  %.0 = phi ptr [ %34, %32 ], [ %27, %.lr.ph ]
  %28 = load i32, ptr %.0, align 8
  switch i32 %28, label %.loopexit [
    i32 33, label %29
    i32 31, label %35
  ]

29:                                               ; preds = %.preheader
  %30 = getelementptr inbounds i8, ptr %.0, i64 64
  %31 = load i32, ptr %30, align 8
  %.not50 = icmp eq i32 %31, 1
  br i1 %.not50, label %32, label %.thread52

32:                                               ; preds = %29
  %33 = getelementptr inbounds i8, ptr %.0, i64 56
  %34 = load ptr, ptr %33, align 8
  br label %.preheader, !llvm.loop !7

35:                                               ; preds = %.preheader
  %36 = getelementptr inbounds i8, ptr %.0, i64 8
  %37 = load ptr, ptr %36, align 8
  %38 = load i32, ptr %37, align 8
  br label %.loopexit

.loopexit:                                        ; preds = %.preheader, %35
  %.040 = phi i32 [ %38, %35 ], [ %28, %.preheader ]
  %39 = and i32 %.040, -2
  %40 = icmp eq i32 %39, 26
  br i1 %40, label %41, label %.thread52

41:                                               ; preds = %.loopexit
  %42 = tail call ptr @type_abi_find_single_struct_element(ptr noundef nonnull %.0)
  %.not51 = icmp eq ptr %42, null
  br i1 %.not51, label %.loopexit54, label %.thread52

.thread52:                                        ; preds = %29, %41, %.loopexit
  %.1 = phi ptr [ %42, %41 ], [ %.0, %.loopexit ], [ %.0, %29 ]
  %indvars.iv.next = add nuw nsw i64 %indvars.iv, 1
  %exitcond.not = icmp eq i64 %indvars.iv.next, %wide.trip.count
  br i1 %exitcond.not, label %._crit_edge, label %.lr.ph, !llvm.loop !9

._crit_edge:                                      ; preds = %.thread52
  %43 = tail call i32 @type_size(ptr noundef nonnull %0) #4
  %44 = tail call i32 @type_size(ptr noundef nonnull %.1) #4
  %.not48 = icmp eq i32 %43, %44
  %spec.select = select i1 %.not48, ptr %.1, ptr null
  br label %.loopexit54

.loopexit54:                                      ; preds = %41, %.lr.ph, %17, %20, %._crit_edge, %11, %8
  %.041 = phi ptr [ null, %8 ], [ null, %11 ], [ %spec.select, %._crit_edge ], [ null, %20 ], [ null, %17 ], [ null, %.lr.ph ], [ null, %41 ]
  ret ptr %.041
}